target datalayout = "e-m:e-p270:32:32-p271:32:32-p272:64:64-i64:64-i128:128-f80:128-n8:16:32:64-S128"
target triple = "x86_64-pc-linux-gnu"

%struct.ggml_hash_set = type { i64, ptr, ptr }
%struct.ggml_cgraph = type { i32, i32, i32, ptr, ptr, ptr, ptr, %struct.ggml_hash_set, i32 }

; Function Attrs: nounwind uwtable
define void @ggml_graph_view(ptr dead_on_unwind noalias writable sret(%struct.ggml_cgraph) align 8 %0, ptr noundef %1, i32 noundef %2, i32 noundef %3) #5 {
  %5 = alloca ptr, align 8
  %6 = alloca i32, align 4
  %7 = alloca i32, align 4
  store ptr %1, ptr %5, align 8, !tbaa !129
  store i32 %2, ptr %6, align 4, !tbaa !8
  store i32 %3, ptr %7, align 4, !tbaa !8
  call void @llvm.memset.p0.i64(ptr align 8 %0, i8 0, i64 80, i1 false)
  %8 = getelementptr inbounds nuw %struct.ggml_cgraph, ptr %0, i32 0, i32 1
  %9 = load i32, ptr %7, align 4, !tbaa !8
  %10 = load i32, ptr %6, align 4, !tbaa !8
  %11 = sub nsw i32 %9, %10
  store i32 %11, ptr %8, align 4, !tbaa !131
  %12 = getelementptr inbounds nuw %struct.ggml_cgraph, ptr %0, i32 0, i32 3
  %13 = load ptr, ptr %5, align 8, !tbaa !129
  %14 = getelementptr inbounds nuw %struct.ggml_cgraph, ptr %13, i32 0, i32 3
  %15 = load ptr, ptr %14, align 8, !tbaa !133
  %16 = load i32, ptr %6, align 4, !tbaa !8
  %17 = sext i32 %16 to i64
  %18 = getelementptr inbounds ptr, ptr %15, i64 %17
  store ptr %18, ptr %12, align 8, !tbaa !133
  %19 = getelementptr inbounds nuw %struct.ggml_cgraph, ptr %0, i32 0, i32 8
  %20 = load ptr, ptr %5, align 8, !tbaa !129
  %21 = getelementptr inbounds nuw %struct.ggml_cgraph, ptr %20, i32 0, i32 8
  %22 = load i32, ptr %21, align 8, !tbaa !149
  store i32 %22, ptr %19, align 8, !tbaa !149
  ret void
}