; Function Attrs: mustprogress nofree norecurse nosync nounwind willreturn memory(argmem: readwrite) uwtable
define void @ggml_graph_view(ptr dead_on_unwind noalias writable writeonly sret(%struct.ggml_cgraph) align 8 captures(none) initializes((0, 80)) %0, ptr noundef readonly captures(none) %1, i32 noundef %2, i32 noundef %3) local_unnamed_addr #25 {
  tail call void @llvm.memset.p0.i64(ptr noundef nonnull align 8 dereferenceable(80) %0, i8 0, i64 80, i1 false)
  %5 = getelementptr inbounds nuw i8, ptr %0, i64 4
  %6 = sub nsw i32 %3, %2
  store i32 %6, ptr %5, align 4, !tbaa !98
  %7 = getelementptr inbounds nuw i8, ptr %0, i64 16
  %8 = getelementptr inbounds nuw i8, ptr %1, i64 16
  %9 = load ptr, ptr %8, align 8, !tbaa !100
  %10 = sext i32 %2 to i64
  %11 = getelementptr inbounds ptr, ptr %9, i64 %10
  store ptr %11, ptr %7, align 8, !tbaa !100
  %12 = getelementptr inbounds nuw i8, ptr %0, i64 72
  %13 = getelementptr inbounds nuw i8, ptr %1, i64 72
  %14 = load i32, ptr %13, align 8, !tbaa !112
  store i32 %14, ptr %12, align 8, !tbaa !112
  ret void
}